target datalayout = "e-m:e-p270:32:32-p271:32:32-p272:64:64-i64:64-i128:128-f80:128-n8:16:32:64-S128"
target triple = "x86_64-pc-linux-gnu"

%struct.ident_t = type { i32, i32, i32, i32, ptr }
%"struct.faiss::AdditiveQuantizer" = type <{ %"struct.faiss::Quantizer", i64, %"class.std::vector", %"class.std::vector.0", %"class.std::vector", i64, i64, i64, i8, i8, i8, [5 x i8], %"struct.faiss::IndexFlat1D", %"class.std::vector.0", i64, i32, float, float, [4 x i8] }>
%"struct.faiss::Quantizer" = type { ptr, i64, i64 }
%"class.std::vector" = type { %"struct.std::_Vector_base" }
%"struct.std::_Vector_base" = type { %"struct.std::_Vector_base<unsigned long, std::allocator<unsigned long>>::_Vector_impl" }
%"struct.std::_Vector_base<unsigned long, std::allocator<unsigned long>>::_Vector_impl" = type { %"struct.std::_Vector_base<unsigned long, std::allocator<unsigned long>>::_Vector_impl_data" }
%"struct.std::_Vector_base<unsigned long, std::allocator<unsigned long>>::_Vector_impl_data" = type { ptr, ptr, ptr }
%"struct.faiss::IndexFlat1D" = type { %"struct.faiss::IndexFlatL2", i8, %"class.std::vector.10" }
%"struct.faiss::IndexFlatL2" = type { %"struct.faiss::IndexFlat", %"class.std::vector.0" }
%"struct.faiss::IndexFlat" = type { %"struct.faiss::IndexFlatCodes" }
%"struct.faiss::IndexFlatCodes" = type { %"struct.faiss::Index.base", i64, %"class.std::vector.5" }
%"struct.faiss::Index.base" = type <{ ptr, i32, [4 x i8], i64, i8, i8, [2 x i8], i32, float }>
%"class.std::vector.5" = type { %"struct.std::_Vector_base.6" }
%"struct.std::_Vector_base.6" = type { %"struct.std::_Vector_base<unsigned char, std::allocator<unsigned char>>::_Vector_impl" }
%"struct.std::_Vector_base<unsigned char, std::allocator<unsigned char>>::_Vector_impl" = type { %"struct.std::_Vector_base<unsigned char, std::allocator<unsigned char>>::_Vector_impl_data" }
%"struct.std::_Vector_base<unsigned char, std::allocator<unsigned char>>::_Vector_impl_data" = type { ptr, ptr, ptr }
%"class.std::vector.10" = type { %"struct.std::_Vector_base.11" }
%"struct.std::_Vector_base.11" = type { %"struct.std::_Vector_base<long, std::allocator<long>>::_Vector_impl" }
%"struct.std::_Vector_base<long, std::allocator<long>>::_Vector_impl" = type { %"struct.std::_Vector_base<long, std::allocator<long>>::_Vector_impl_data" }
%"struct.std::_Vector_base<long, std::allocator<long>>::_Vector_impl_data" = type { ptr, ptr, ptr }
%"class.std::vector.0" = type { %"struct.std::_Vector_base.1" }
%"struct.std::_Vector_base.1" = type { %"struct.std::_Vector_base<float, std::allocator<float>>::_Vector_impl" }
%"struct.std::_Vector_base<float, std::allocator<float>>::_Vector_impl" = type { %"struct.std::_Vector_base<float, std::allocator<float>>::_Vector_impl_data" }
%"struct.std::_Vector_base<float, std::allocator<float>>::_Vector_impl_data" = type { ptr, ptr, ptr }
%"struct.faiss::BitstringReader" = type { ptr, i64, i64 }

@1 = private unnamed_addr constant %struct.ident_t { i32 0, i32 514, i32 0, i32 22, ptr @0 }, align 8

; Function Attrs: mustprogress nounwind uwtable
define linkonce_odr noundef ptr @_ZNKSt6vectorIfSaIfEE11_M_data_ptrIfEEPT_S4_(ptr noundef nonnull align 8 dereferenceable(24) %0, ptr noundef %1) #1 comdat align 2 {
  %3 = alloca ptr, align 8
  %4 = alloca ptr, align 8
  store ptr %0, ptr %3, align 8
  store ptr %1, ptr %4, align 8
  %5 = load ptr, ptr %4, align 8
  ret ptr %5
}

; Function Attrs: mustprogress nounwind uwtable
define linkonce_odr noundef ptr @_ZNKSt6vectorIfSaIfEE4dataEv(ptr noundef nonnull align 8 dereferenceable(24) %0) #1 comdat align 2 {
  %2 = alloca ptr, align 8
  store ptr %0, ptr %2, align 8
  %3 = load ptr, ptr %2, align 8
  %4 = getelementptr inbounds %"struct.std::_Vector_base.1", ptr %3, i32 0, i32 0
  %5 = getelementptr inbounds %"struct.std::_Vector_base<float, std::allocator<float>>::_Vector_impl_data", ptr %4, i32 0, i32 0
  %6 = load ptr, ptr %5, align 8
  %7 = call noundef ptr @_ZNKSt6vectorIfSaIfEE11_M_data_ptrIfEEPT_S4_(ptr noundef nonnull align 8 dereferenceable(24) %3, ptr noundef %6) #13
  ret ptr %7
}

; Function Attrs: mustprogress nounwind uwtable
define linkonce_odr noundef i64 @_ZN5faiss15BitstringReader4readEi(ptr noundef nonnull align 8 dereferenceable(24) %0, i32 noundef %1) #1 comdat align 2 {
  %3 = alloca i64, align 8
  %4 = alloca ptr, align 8
  %5 = alloca i32, align 4
  %6 = alloca i32, align 4
  %7 = alloca i64, align 8
  %8 = alloca i32, align 4
  %9 = alloca i64, align 8
  %10 = alloca i64, align 8
  store ptr %0, ptr %4, align 8
  store i32 %1, ptr %5, align 4
  %11 = load ptr, ptr %4, align 8
  %12 = getelementptr inbounds %"struct.faiss::BitstringReader", ptr %11, i32 0, i32 2
  %13 = load i64, ptr %12, align 8
  %14 = and i64 %13, 7
  %15 = sub i64 8, %14
  %16 = trunc i64 %15 to i32
  store i32 %16, ptr %6, align 4
  %17 = getelementptr inbounds %"struct.faiss::BitstringReader", ptr %11, i32 0, i32 0
  %18 = load ptr, ptr %17, align 8
  %19 = getelementptr inbounds %"struct.faiss::BitstringReader", ptr %11, i32 0, i32 2
  %20 = load i64, ptr %19, align 8
  %21 = lshr i64 %20, 3
  %22 = getelementptr inbounds i8, ptr %18, i64 %21
  %23 = load i8, ptr %22, align 1
  %24 = zext i8 %23 to i32
  %25 = getelementptr inbounds %"struct.faiss::BitstringReader", ptr %11, i32 0, i32 2
  %26 = load i64, ptr %25, align 8
  %27 = and i64 %26, 7
  %28 = trunc i64 %27 to i32
  %29 = ashr i32 %24, %28
  %30 = sext i32 %29 to i64
  store i64 %30, ptr %7, align 8
  %31 = load i32, ptr %5, align 4
  %32 = load i32, ptr %6, align 4
  %33 = icmp sle i32 %31, %32
  br i1 %33, label %34, label %47

34:                                               ; preds = %2
  %35 = load i32, ptr %5, align 4
  %36 = shl i32 1, %35
  %37 = sub nsw i32 %36, 1
  %38 = sext i32 %37 to i64
  %39 = load i64, ptr %7, align 8
  %40 = and i64 %39, %38
  store i64 %40, ptr %7, align 8
  %41 = load i32, ptr %5, align 4
  %42 = sext i32 %41 to i64
  %43 = getelementptr inbounds %"struct.faiss::BitstringReader", ptr %11, i32 0, i32 2
  %44 = load i64, ptr %43, align 8
  %45 = add i64 %44, %42
  store i64 %45, ptr %43, align 8
  %46 = load i64, ptr %7, align 8
  store i64 %46, ptr %3, align 8
  br label %101

47:                                               ; preds = %2
  %48 = load i32, ptr %6, align 4
  store i32 %48, ptr %8, align 4
  %49 = getelementptr inbounds %"struct.faiss::BitstringReader", ptr %11, i32 0, i32 2
  %50 = load i64, ptr %49, align 8
  %51 = lshr i64 %50, 3
  %52 = add i64 %51, 1
  store i64 %52, ptr %9, align 8
  %53 = load i32, ptr %5, align 4
  %54 = sext i32 %53 to i64
  %55 = getelementptr inbounds %"struct.faiss::BitstringReader", ptr %11, i32 0, i32 2
  %56 = load i64, ptr %55, align 8
  %57 = add i64 %56, %54
  store i64 %57, ptr %55, align 8
  %58 = load i32, ptr %6, align 4
  %59 = load i32, ptr %5, align 4
  %60 = sub nsw i32 %59, %58
  store i32 %60, ptr %5, align 4
  br label %61

61:                                               ; preds = %64, %47
  %62 = load i32, ptr %5, align 4
  %63 = icmp sgt i32 %62, 8
  br i1 %63, label %64, label %81

64:                                               ; preds = %61
  %65 = getelementptr inbounds %"struct.faiss::BitstringReader", ptr %11, i32 0, i32 0
  %66 = load ptr, ptr %65, align 8
  %67 = load i64, ptr %9, align 8
  %68 = add i64 %67, 1
  store i64 %68, ptr %9, align 8
  %69 = getelementptr inbounds i8, ptr %66, i64 %67
  %70 = load i8, ptr %69, align 1
  %71 = zext i8 %70 to i64
  %72 = load i32, ptr %8, align 4
  %73 = zext i32 %72 to i64
  %74 = shl i64 %71, %73
  %75 = load i64, ptr %7, align 8
  %76 = or i64 %75, %74
  store i64 %76, ptr %7, align 8
  %77 = load i32, ptr %8, align 4
  %78 = add nsw i32 %77, 8
  store i32 %78, ptr %8, align 4
  %79 = load i32, ptr %5, align 4
  %80 = sub nsw i32 %79, 8
  store i32 %80, ptr %5, align 4
  br label %61, !llvm.loop !17

81:                                               ; preds = %61
  %82 = getelementptr inbounds %"struct.faiss::BitstringReader", ptr %11, i32 0, i32 0
  %83 = load ptr, ptr %82, align 8
  %84 = load i64, ptr %9, align 8
  %85 = getelementptr inbounds i8, ptr %83, i64 %84
  %86 = load i8, ptr %85, align 1
  %87 = zext i8 %86 to i64
  store i64 %87, ptr %10, align 8
  %88 = load i32, ptr %5, align 4
  %89 = shl i32 1, %88
  %90 = sub nsw i32 %89, 1
  %91 = sext i32 %90 to i64
  %92 = load i64, ptr %10, align 8
  %93 = and i64 %92, %91
  store i64 %93, ptr %10, align 8
  %94 = load i64, ptr %10, align 8
  %95 = load i32, ptr %8, align 4
  %96 = zext i32 %95 to i64
  %97 = shl i64 %94, %96
  %98 = load i64, ptr %7, align 8
  %99 = or i64 %98, %97
  store i64 %99, ptr %7, align 8
  %100 = load i64, ptr %7, align 8
  store i64 %100, ptr %3, align 8
  br label %101

101:                                              ; preds = %81, %34
  %102 = load i64, ptr %3, align 8
  ret i64 %102
}

; Function Attrs: mustprogress nounwind uwtable
define linkonce_odr noundef nonnull align 8 dereferenceable(8) ptr @_ZNKSt6vectorImSaImEEixEm(ptr noundef nonnull align 8 dereferenceable(24) %0, i64 noundef %1) #1 comdat align 2 {
  %3 = alloca ptr, align 8
  %4 = alloca i64, align 8
  store ptr %0, ptr %3, align 8
  store i64 %1, ptr %4, align 8
  %5 = load ptr, ptr %3, align 8
  %6 = getelementptr inbounds %"struct.std::_Vector_base", ptr %5, i32 0, i32 0
  %7 = getelementptr inbounds %"struct.std::_Vector_base<unsigned long, std::allocator<unsigned long>>::_Vector_impl_data", ptr %6, i32 0, i32 0
  %8 = load ptr, ptr %7, align 8
  %9 = load i64, ptr %4, align 8
  %10 = getelementptr inbounds i64, ptr %8, i64 %9
  ret ptr %10
}

; Function Attrs: mustprogress nounwind uwtable
define linkonce_odr void @_ZN5faiss15BitstringReaderC2EPKhm(ptr noundef nonnull align 8 dereferenceable(24) %0, ptr noundef %1, i64 noundef %2) unnamed_addr #1 comdat align 2 {
  %4 = alloca ptr, align 8
  %5 = alloca ptr, align 8
  %6 = alloca i64, align 8
  store ptr %0, ptr %4, align 8
  store ptr %1, ptr %5, align 8
  store i64 %2, ptr %6, align 8
  %7 = load ptr, ptr %4, align 8
  %8 = getelementptr inbounds %"struct.faiss::BitstringReader", ptr %7, i32 0, i32 0
  %9 = load ptr, ptr %5, align 8
  store ptr %9, ptr %8, align 8
  %10 = getelementptr inbounds %"struct.faiss::BitstringReader", ptr %7, i32 0, i32 1
  %11 = load i64, ptr %6, align 8
  store i64 %11, ptr %10, align 8
  %12 = getelementptr inbounds %"struct.faiss::BitstringReader", ptr %7, i32 0, i32 2
  store i64 0, ptr %12, align 8
  ret void
}

; Function Attrs: norecurse nounwind uwtable
define internal void @_ZNK5faiss17AdditiveQuantizer6decodeEPKhPfm.omp_outlined(ptr noalias noundef %0, ptr noalias noundef %1, ptr noundef nonnull align 8 dereferenceable(8) %2, ptr noundef nonnull align 8 dereferenceable(8) %3, ptr noundef %4, ptr noundef nonnull align 8 dereferenceable(8) %5) #12 personality ptr @__gxx_personality_v0 {
  %7 = alloca ptr, align 8
  %8 = alloca ptr, align 8
  %9 = alloca ptr, align 8
  %10 = alloca ptr, align 8
  %11 = alloca ptr, align 8
  %12 = alloca ptr, align 8
  %13 = alloca i64, align 8
  %14 = alloca i64, align 8
  %15 = alloca i64, align 8
  %16 = alloca i64, align 8
  %17 = alloca i64, align 8
  %18 = alloca i64, align 8
  %19 = alloca i64, align 8
  %20 = alloca i32, align 4
  %21 = alloca i64, align 8
  %22 = alloca %"struct.faiss::BitstringReader", align 8
  %23 = alloca ptr, align 8
  %24 = alloca i32, align 4
  %25 = alloca i32, align 4
  %26 = alloca ptr, align 8
  store ptr %0, ptr %7, align 8
  store ptr %1, ptr %8, align 8
  store ptr %2, ptr %9, align 8
  store ptr %3, ptr %10, align 8
  store ptr %4, ptr %11, align 8
  store ptr %5, ptr %12, align 8
  %27 = load ptr, ptr %9, align 8
  %28 = load ptr, ptr %10, align 8
  %29 = load ptr, ptr %11, align 8
  %30 = load ptr, ptr %12, align 8
  %31 = load i64, ptr %27, align 8
  store i64 %31, ptr %14, align 8
  %32 = load i64, ptr %14, align 8
  %33 = sub i64 %32, 0
  %34 = udiv i64 %33, 1
  %35 = sub i64 %34, 1
  store i64 %35, ptr %15, align 8
  store i64 0, ptr %16, align 8
  %36 = load i64, ptr %14, align 8
  %37 = icmp ult i64 0, %36
  br i1 %37, label %38, label %134

38:                                               ; preds = %6
  store i64 0, ptr %17, align 8
  %39 = load i64, ptr %15, align 8
  store i64 %39, ptr %18, align 8
  store i64 1, ptr %19, align 8
  store i32 0, ptr %20, align 4
  %40 = load ptr, ptr %7, align 8
  %41 = load i32, ptr %40, align 4
  call void @__kmpc_for_static_init_8u(ptr @1, i32 %41, i32 34, ptr %20, ptr %17, ptr %18, ptr %19, i64 1, i64 1)
  %42 = load i64, ptr %18, align 8
  %43 = load i64, ptr %15, align 8
  %44 = icmp ugt i64 %42, %43
  br i1 %44, label %45, label %47

45:                                               ; preds = %38
  %46 = load i64, ptr %15, align 8
  br label %49

47:                                               ; preds = %38
  %48 = load i64, ptr %18, align 8
  br label %49

49:                                               ; preds = %47, %45
  %50 = phi i64 [ %46, %45 ], [ %48, %47 ]
  store i64 %50, ptr %18, align 8
  %51 = load i64, ptr %17, align 8
  store i64 %51, ptr %13, align 8
  br label %52

52:                                               ; preds = %127, %49
  %53 = load i64, ptr %13, align 8
  %54 = load i64, ptr %18, align 8
  %55 = add i64 %54, 1
  %56 = icmp ult i64 %53, %55
  br i1 %56, label %57, label %130

57:                                               ; preds = %52
  %58 = load i64, ptr %13, align 8
  %59 = mul i64 %58, 1
  %60 = add i64 0, %59
  store i64 %60, ptr %21, align 8
  %61 = load ptr, ptr %28, align 8
  %62 = load i64, ptr %21, align 8
  %63 = getelementptr inbounds %"struct.faiss::Quantizer", ptr %29, i32 0, i32 2
  %64 = load i64, ptr %63, align 8
  %65 = mul i64 %62, %64
  %66 = getelementptr inbounds i8, ptr %61, i64 %65
  %67 = getelementptr inbounds %"struct.faiss::Quantizer", ptr %29, i32 0, i32 2
  %68 = load i64, ptr %67, align 8
  invoke void @_ZN5faiss15BitstringReaderC2EPKhm(ptr noundef nonnull align 8 dereferenceable(24) %22, ptr noundef %66, i64 noundef %68)
          to label %69 unwind label %135

69:                                               ; preds = %57
  %70 = load ptr, ptr %30, align 8
  %71 = load i64, ptr %21, align 8
  %72 = getelementptr inbounds %"struct.faiss::Quantizer", ptr %29, i32 0, i32 1
  %73 = load i64, ptr %72, align 8
  %74 = mul i64 %71, %73
  %75 = getelementptr inbounds float, ptr %70, i64 %74
  store ptr %75, ptr %23, align 8
  store i32 0, ptr %24, align 4
  br label %76

76:                                               ; preds = %122, %69
  %77 = load i32, ptr %24, align 4
  %78 = sext i32 %77 to i64
  %79 = getelementptr inbounds %"struct.faiss::AdditiveQuantizer", ptr %29, i32 0, i32 1
  %80 = load i64, ptr %79, align 8
  %81 = icmp ult i64 %78, %80
  br i1 %81, label %82, label %125

82:                                               ; preds = %76
  %83 = getelementptr inbounds %"struct.faiss::AdditiveQuantizer", ptr %29, i32 0, i32 2
  %84 = load i32, ptr %24, align 4
  %85 = sext i32 %84 to i64
  %86 = call noundef nonnull align 8 dereferenceable(8) ptr @_ZNKSt6vectorImSaImEEixEm(ptr noundef nonnull align 8 dereferenceable(24) %83, i64 noundef %85) #13
  %87 = load i64, ptr %86, align 8
  %88 = trunc i64 %87 to i32
  %89 = invoke noundef i64 @_ZN5faiss15BitstringReader4readEi(ptr noundef nonnull align 8 dereferenceable(24) %22, i32 noundef %88)
          to label %90 unwind label %135

90:                                               ; preds = %82
  %91 = trunc i64 %89 to i32
  store i32 %91, ptr %25, align 4
  %92 = getelementptr inbounds %"struct.faiss::AdditiveQuantizer", ptr %29, i32 0, i32 3
  %93 = call noundef ptr @_ZNKSt6vectorIfSaIfEE4dataEv(ptr noundef nonnull align 8 dereferenceable(24) %92) #13
  %94 = getelementptr inbounds %"struct.faiss::Quantizer", ptr %29, i32 0, i32 1
  %95 = load i64, ptr %94, align 8
  %96 = getelementptr inbounds %"struct.faiss::AdditiveQuantizer", ptr %29, i32 0, i32 4
  %97 = load i32, ptr %24, align 4
  %98 = sext i32 %97 to i64
  %99 = call noundef nonnull align 8 dereferenceable(8) ptr @_ZNKSt6vectorImSaImEEixEm(ptr noundef nonnull align 8 dereferenceable(24) %96, i64 noundef %98) #13
  %100 = load i64, ptr %99, align 8
  %101 = load i32, ptr %25, align 4
  %102 = sext i32 %101 to i64
  %103 = add i64 %100, %102
  %104 = mul i64 %95, %103
  %105 = getelementptr inbounds float, ptr %93, i64 %104
  store ptr %105, ptr %26, align 8
  %106 = load i32, ptr %24, align 4
  %107 = icmp eq i32 %106, 0
  br i1 %107, label %108, label %114

108:                                              ; preds = %90
  %109 = load ptr, ptr %23, align 8
  %110 = load ptr, ptr %26, align 8
  %111 = getelementptr inbounds %"struct.faiss::Quantizer", ptr %29, i32 0, i32 1
  %112 = load i64, ptr %111, align 8
  %113 = mul i64 4, %112
  call void @llvm.memcpy.p0.p0.i64(ptr align 4 %109, ptr align 4 %110, i64 %113, i1 false)
  br label %121

114:                                              ; preds = %90
  %115 = getelementptr inbounds %"struct.faiss::Quantizer", ptr %29, i32 0, i32 1
  %116 = load i64, ptr %115, align 8
  %117 = load ptr, ptr %23, align 8
  %118 = load ptr, ptr %26, align 8
  %119 = load ptr, ptr %23, align 8
  invoke void @_ZN5faiss8fvec_addEmPKfS1_Pf(i64 noundef %116, ptr noundef %117, ptr noundef %118, ptr noundef %119)
          to label %120 unwind label %135

120:                                              ; preds = %114
  br label %121

121:                                              ; preds = %120, %108
  br label %122

122:                                              ; preds = %121
  %123 = load i32, ptr %24, align 4
  %124 = add nsw i32 %123, 1
  store i32 %124, ptr %24, align 4
  br label %76, !llvm.loop !16

125:                                              ; preds = %76
  br label %126

126:                                              ; preds = %125
  br label %127

127:                                              ; preds = %126
  %128 = load i64, ptr %13, align 8
  %129 = add i64 %128, 1
  store i64 %129, ptr %13, align 8
  br label %52

130:                                              ; preds = %52
  br label %131

131:                                              ; preds = %130
  %132 = load ptr, ptr %7, align 8
  %133 = load i32, ptr %132, align 4
  call void @__kmpc_for_static_fini(ptr @1, i32 %133)
  br label %134

134:                                              ; preds = %131, %6
  ret void

135:                                              ; preds = %114, %82, %57
  %136 = landingpad { ptr, i32 }
          catch ptr null
  %137 = extractvalue { ptr, i32 } %136, 0
  call void @__clang_call_terminate(ptr %137) #16
  unreachable
}