; Function Attrs: norecurse nounwind uwtable
define internal void @_ZNK5faiss17AdditiveQuantizer6decodeEPKhPfm.omp_outlined(ptr noalias nocapture noundef readonly %0, ptr noalias nocapture readnone %1, ptr nocapture noundef nonnull readonly align 8 dereferenceable(8) %2, ptr nocapture noundef nonnull readonly align 8 dereferenceable(8) %3, ptr nocapture noundef readonly %4, ptr nocapture noundef nonnull readonly align 8 dereferenceable(8) %5) #14 personality ptr @__gxx_personality_v0 {
  %7 = alloca i64, align 8
  %8 = alloca i64, align 8
  %9 = alloca i64, align 8
  %10 = alloca i32, align 4
  %11 = load i64, ptr %2, align 8
  %.not = icmp eq i64 %11, 0
  br i1 %.not, label %96, label %12

12:                                               ; preds = %6
  %13 = add i64 %11, -1
  store i64 0, ptr %7, align 8
  store i64 %13, ptr %8, align 8
  store i64 1, ptr %9, align 8
  store i32 0, ptr %10, align 4
  %14 = load i32, ptr %0, align 4
  call void @__kmpc_for_static_init_8u(ptr nonnull @1, i32 %14, i32 34, ptr nonnull %10, ptr nonnull %7, ptr nonnull %8, ptr nonnull %9, i64 1, i64 1)
  %15 = load i64, ptr %8, align 8
  %16 = call i64 @llvm.umin.i64(i64 %15, i64 %13)
  store i64 %16, ptr %8, align 8
  %17 = load i64, ptr %7, align 8
  %.not43 = icmp ugt i64 %17, %16
  br i1 %.not43, label %._crit_edge35, label %.lr.ph34

.lr.ph34:                                         ; preds = %12
  %18 = getelementptr inbounds i8, ptr %4, i64 16
  %19 = getelementptr inbounds i8, ptr %4, i64 8
  %20 = getelementptr inbounds i8, ptr %4, i64 24
  %21 = getelementptr inbounds i8, ptr %4, i64 32
  %22 = getelementptr inbounds i8, ptr %4, i64 56
  %23 = getelementptr inbounds i8, ptr %4, i64 80
  %24 = load i64, ptr %20, align 8
  %.not36 = icmp eq i64 %24, 0
  br i1 %.not36, label %._crit_edge35, label %.lr.ph34.split

.lr.ph34.split:                                   ; preds = %.lr.ph34, %._crit_edge
  %25 = phi i64 [ %91, %._crit_edge ], [ %16, %.lr.ph34 ]
  %26 = phi i64 [ %92, %._crit_edge ], [ 1, %.lr.ph34 ]
  %.032 = phi i64 [ %93, %._crit_edge ], [ %17, %.lr.ph34 ]
  %27 = load ptr, ptr %3, align 8
  %28 = load i64, ptr %18, align 8
  %29 = mul i64 %28, %.032
  %30 = getelementptr inbounds i8, ptr %27, i64 %29
  %31 = load ptr, ptr %5, align 8
  %32 = load i64, ptr %19, align 8
  %33 = mul i64 %32, %.032
  %34 = getelementptr inbounds float, ptr %31, i64 %33
  %.not37 = icmp eq i64 %26, 0
  br i1 %.not37, label %._crit_edge, label %.lr.ph

.lr.ph:                                           ; preds = %.lr.ph34.split, %88
  %indvars.iv = phi i64 [ %indvars.iv.next, %88 ], [ 0, %.lr.ph34.split ]
  %.sroa.3.030 = phi i64 [ %.sroa.3.1, %88 ], [ 0, %.lr.ph34.split ]
  %35 = load ptr, ptr %21, align 8
  %36 = getelementptr inbounds i64, ptr %35, i64 %indvars.iv
  %37 = load i64, ptr %36, align 8
  %38 = trunc i64 %37 to i32
  %39 = trunc i64 %.sroa.3.030 to i32
  %40 = and i32 %39, 7
  %41 = sub nuw nsw i32 8, %40
  %42 = lshr i64 %.sroa.3.030, 3
  %43 = getelementptr inbounds i8, ptr %30, i64 %42
  %44 = load i8, ptr %43, align 1
  %45 = zext i8 %44 to i32
  %46 = lshr i32 %45, %40
  %.not.i = icmp slt i32 %41, %38
  br i1 %.not.i, label %52, label %47

47:                                               ; preds = %.lr.ph
  %notmask30.i = shl nsw i32 -1, %38
  %48 = xor i32 %notmask30.i, -1
  %49 = and i32 %46, %48
  %50 = zext nneg i32 %49 to i64
  %sext28 = shl i64 %37, 32
  %51 = ashr exact i64 %sext28, 32
  br label %_ZN5faiss15BitstringReader4readEi.exit

52:                                               ; preds = %.lr.ph
  %53 = zext nneg i32 %46 to i64
  %54 = and i64 %37, 4294967295
  %55 = sub nsw i32 %38, %41
  %.02431.i = add nuw nsw i64 %42, 1
  %56 = icmp sgt i32 %55, 8
  br i1 %56, label %.lr.ph.preheader.i, label %._crit_edge.i

.lr.ph.preheader.i:                               ; preds = %52
  %57 = zext nneg i32 %41 to i64
  br label %.lr.ph.i

.lr.ph.i:                                         ; preds = %.lr.ph.i, %.lr.ph.preheader.i
  %indvars.iv.i = phi i64 [ %57, %.lr.ph.preheader.i ], [ %indvars.iv.next.i, %.lr.ph.i ]
  %.02435.i = phi i64 [ %.02431.i, %.lr.ph.preheader.i ], [ %.024.i, %.lr.ph.i ]
  %.02633.i = phi i64 [ %53, %.lr.ph.preheader.i ], [ %62, %.lr.ph.i ]
  %.02732.i = phi i32 [ %55, %.lr.ph.preheader.i ], [ %63, %.lr.ph.i ]
  %58 = getelementptr inbounds i8, ptr %30, i64 %.02435.i
  %59 = load i8, ptr %58, align 1
  %60 = zext i8 %59 to i64
  %61 = shl i64 %60, %indvars.iv.i
  %62 = or i64 %61, %.02633.i
  %indvars.iv.next.i = add nuw nsw i64 %indvars.iv.i, 8
  %63 = add nsw i32 %.02732.i, -8
  %.024.i = add nuw nsw i64 %.02435.i, 1
  %64 = icmp ugt i32 %.02732.i, 16
  br i1 %64, label %.lr.ph.i, label %._crit_edge.loopexit.i, !llvm.loop !16

._crit_edge.loopexit.i:                           ; preds = %.lr.ph.i
  %65 = trunc i64 %indvars.iv.next.i to i32
  br label %._crit_edge.i

._crit_edge.i:                                    ; preds = %._crit_edge.loopexit.i, %52
  %.027.lcssa.i = phi i32 [ %55, %52 ], [ %63, %._crit_edge.loopexit.i ]
  %.026.lcssa.i = phi i64 [ %53, %52 ], [ %62, %._crit_edge.loopexit.i ]
  %.025.lcssa.i = phi i32 [ %41, %52 ], [ %65, %._crit_edge.loopexit.i ]
  %.024.lcssa.i = phi i64 [ %.02431.i, %52 ], [ %.024.i, %._crit_edge.loopexit.i ]
  %66 = getelementptr inbounds i8, ptr %30, i64 %.024.lcssa.i
  %67 = load i8, ptr %66, align 1
  %notmask.i = shl nsw i32 -1, %.027.lcssa.i
  %68 = xor i32 %notmask.i, -1
  %69 = zext i8 %67 to i32
  %70 = and i32 %69, %68
  %71 = zext nneg i32 %70 to i64
  %72 = zext nneg i32 %.025.lcssa.i to i64
  %73 = shl i64 %71, %72
  %74 = or i64 %73, %.026.lcssa.i
  br label %_ZN5faiss15BitstringReader4readEi.exit

_ZN5faiss15BitstringReader4readEi.exit:           ; preds = %47, %._crit_edge.i
  %.pn = phi i64 [ %54, %._crit_edge.i ], [ %51, %47 ]
  %.0.i = phi i64 [ %74, %._crit_edge.i ], [ %50, %47 ]
  %.sroa.3.1 = add i64 %.pn, %.sroa.3.030
  %75 = load ptr, ptr %22, align 8
  %76 = load i64, ptr %19, align 8
  %77 = load ptr, ptr %23, align 8
  %78 = getelementptr inbounds i64, ptr %77, i64 %indvars.iv
  %79 = load i64, ptr %78, align 8
  %sext = shl i64 %.0.i, 32
  %80 = ashr exact i64 %sext, 32
  %81 = add i64 %79, %80
  %82 = mul i64 %81, %76
  %83 = getelementptr inbounds float, ptr %75, i64 %82
  %84 = icmp eq i64 %indvars.iv, 0
  br i1 %84, label %85, label %87

85:                                               ; preds = %_ZN5faiss15BitstringReader4readEi.exit
  %86 = shl i64 %76, 2
  call void @llvm.memcpy.p0.p0.i64(ptr align 4 %34, ptr align 4 %83, i64 %86, i1 false)
  br label %88

87:                                               ; preds = %_ZN5faiss15BitstringReader4readEi.exit
  invoke void @_ZN5faiss8fvec_addEmPKfS1_Pf(i64 noundef %76, ptr noundef %34, ptr noundef %83, ptr noundef %34)
          to label %88 unwind label %97

88:                                               ; preds = %85, %87
  %indvars.iv.next = add nuw nsw i64 %indvars.iv, 1
  %89 = load i64, ptr %20, align 8
  %90 = icmp ugt i64 %89, %indvars.iv.next
  br i1 %90, label %.lr.ph, label %._crit_edge.loopexit, !llvm.loop !17

._crit_edge.loopexit:                             ; preds = %88
  %.pre = load i64, ptr %8, align 8
  br label %._crit_edge

._crit_edge:                                      ; preds = %._crit_edge.loopexit, %.lr.ph34.split
  %91 = phi i64 [ %.pre, %._crit_edge.loopexit ], [ %25, %.lr.ph34.split ]
  %92 = phi i64 [ %89, %._crit_edge.loopexit ], [ 0, %.lr.ph34.split ]
  %93 = add nuw i64 %.032, 1
  %94 = add i64 %91, 1
  %95 = icmp ult i64 %93, %94
  br i1 %95, label %.lr.ph34.split, label %._crit_edge35, !llvm.loop !18

._crit_edge35:                                    ; preds = %._crit_edge, %.lr.ph34, %12
  call void @__kmpc_for_static_fini(ptr nonnull @1, i32 %14)
  br label %96

96:                                               ; preds = %._crit_edge35, %6
  ret void

97:                                               ; preds = %87
  %98 = landingpad { ptr, i32 }
          catch ptr null
  %99 = extractvalue { ptr, i32 } %98, 0
  call void @__clang_call_terminate(ptr %99) #21
  unreachable
}